target datalayout = "e-m:e-p270:32:32-p271:32:32-p272:64:64-i64:64-i128:128-f80:128-n8:16:32:64-S128"
target triple = "x86_64-pc-linux-gnu"

@.str.1 = private unnamed_addr constant [4 x i8] c"%2x\00", align 1

; Function Attrs: mustprogress uwtable
define i32 @u_parseUTF8(ptr noundef %0, i32 noundef %1, ptr noundef %2, i32 noundef %3, ptr noundef %4) #3 {
  %6 = alloca ptr, align 8
  %7 = alloca i32, align 4
  %8 = alloca ptr, align 8
  %9 = alloca i32, align 4
  %10 = alloca ptr, align 8
  %11 = alloca ptr, align 8
  %12 = alloca i32, align 4
  %13 = alloca i32, align 4
  store ptr %0, ptr %6, align 8, !tbaa !3
  store i32 %1, ptr %7, align 4, !tbaa !15
  store ptr %2, ptr %8, align 8, !tbaa !3
  store i32 %3, ptr %9, align 4, !tbaa !15
  store ptr %4, ptr %10, align 8, !tbaa !17
  call void @llvm.lifetime.start.p0(i64 8, ptr %11) #7
  %14 = load ptr, ptr %6, align 8, !tbaa !3
  store ptr %14, ptr %11, align 8, !tbaa !3
  call void @llvm.lifetime.start.p0(i64 4, ptr %12) #7
  store i32 0, ptr %12, align 4, !tbaa !15
  call void @llvm.lifetime.start.p0(i64 4, ptr %13) #7
  store i32 0, ptr %13, align 4, !tbaa !15
  %15 = load i32, ptr %7, align 4, !tbaa !15
  %16 = icmp eq i32 %15, -1
  br i1 %16, label %17, label %21

17:                                               ; preds = %5
  %18 = load ptr, ptr %6, align 8, !tbaa !3
  %19 = call i64 @strlen(ptr noundef %18) #8
  %20 = trunc i64 %19 to i32
  store i32 %20, ptr %7, align 4, !tbaa !15
  br label %21

21:                                               ; preds = %17, %5
  br label %22

22:                                               ; preds = %42, %21
  %23 = load ptr, ptr %11, align 8, !tbaa !3
  %24 = load ptr, ptr %6, align 8, !tbaa !3
  %25 = load i32, ptr %7, align 4, !tbaa !15
  %26 = sext i32 %25 to i64
  %27 = getelementptr inbounds i8, ptr %24, i64 %26
  %28 = icmp ult ptr %23, %27
  br i1 %28, label %29, label %47

29:                                               ; preds = %22
  %30 = load ptr, ptr %11, align 8, !tbaa !3
  %31 = call i32 (ptr, ptr, ...) @__isoc99_sscanf(ptr noundef %30, ptr noundef @.str.1, ptr noundef %13) #7
  %32 = load i32, ptr %12, align 4, !tbaa !15
  %33 = load i32, ptr %9, align 4, !tbaa !15
  %34 = icmp slt i32 %32, %33
  br i1 %34, label %35, label %42

35:                                               ; preds = %29
  %36 = load i32, ptr %13, align 4, !tbaa !15
  %37 = trunc i32 %36 to i8
  %38 = load ptr, ptr %8, align 8, !tbaa !3
  %39 = load i32, ptr %12, align 4, !tbaa !15
  %40 = sext i32 %39 to i64
  %41 = getelementptr inbounds i8, ptr %38, i64 %40
  store i8 %37, ptr %41, align 1, !tbaa !8
  br label %42

42:                                               ; preds = %35, %29
  %43 = load i32, ptr %12, align 4, !tbaa !15
  %44 = add nsw i32 %43, 1
  store i32 %44, ptr %12, align 4, !tbaa !15
  %45 = load ptr, ptr %11, align 8, !tbaa !3
  %46 = getelementptr inbounds i8, ptr %45, i64 2
  store ptr %46, ptr %11, align 8, !tbaa !3
  br label %22, !llvm.loop !34

47:                                               ; preds = %22
  %48 = load ptr, ptr %8, align 8, !tbaa !3
  %49 = load i32, ptr %9, align 4, !tbaa !15
  %50 = load i32, ptr %12, align 4, !tbaa !15
  %51 = load ptr, ptr %10, align 8, !tbaa !17
  %52 = call i32 @u_terminateChars_77(ptr noundef %48, i32 noundef %49, i32 noundef %50, ptr noundef %51)
  call void @llvm.lifetime.end.p0(i64 4, ptr %13) #7
  call void @llvm.lifetime.end.p0(i64 4, ptr %12) #7
  call void @llvm.lifetime.end.p0(i64 8, ptr %11) #7
  ret i32 %52
}