; Function Attrs: mustprogress uwtable
define i32 @u_parseUTF8(ptr noundef readonly %0, i32 noundef %1, ptr noundef %2, i32 noundef %3, ptr noundef %4) local_unnamed_addr #4 {
  %6 = alloca i32, align 4
  call void @llvm.lifetime.start.p0(i64 4, ptr nonnull %6) #9
  store i32 0, ptr %6, align 4, !tbaa !18
  %7 = icmp eq i32 %1, -1
  br i1 %7, label %8, label %11

8:                                                ; preds = %5
  %9 = tail call i64 @strlen(ptr noundef nonnull dereferenceable(1) %0) #10
  %10 = trunc i64 %9 to i32
  br label %11

11:                                               ; preds = %8, %5
  %.017 = phi i32 [ %10, %8 ], [ %1, %5 ]
  %12 = sext i32 %.017 to i64
  %13 = getelementptr inbounds i8, ptr %0, i64 %12
  %14 = icmp sgt i32 %.017, 0
  br i1 %14, label %.lr.ph.preheader, label %._crit_edge

.lr.ph.preheader:                                 ; preds = %11
  %15 = sext i32 %3 to i64
  br label %.lr.ph

.lr.ph:                                           ; preds = %.lr.ph.preheader, %22
  %indvars.iv = phi i64 [ 0, %.lr.ph.preheader ], [ %indvars.iv.next, %22 ]
  %.01619 = phi ptr [ %0, %.lr.ph.preheader ], [ %23, %22 ]
  %16 = call i32 (ptr, ptr, ...) @__isoc99_sscanf(ptr noundef %.01619, ptr noundef nonnull @.str.1, ptr noundef nonnull %6) #9
  %17 = icmp slt i64 %indvars.iv, %15
  br i1 %17, label %18, label %22

18:                                               ; preds = %.lr.ph
  %19 = load i32, ptr %6, align 4, !tbaa !18
  %20 = trunc i32 %19 to i8
  %21 = getelementptr inbounds nuw i8, ptr %2, i64 %indvars.iv
  store i8 %20, ptr %21, align 1, !tbaa !3
  br label %22

22:                                               ; preds = %18, %.lr.ph
  %indvars.iv.next = add nuw nsw i64 %indvars.iv, 1
  %23 = getelementptr inbounds nuw i8, ptr %.01619, i64 2
  %24 = icmp ult ptr %23, %13
  br i1 %24, label %.lr.ph, label %._crit_edge.loopexit, !llvm.loop !24

._crit_edge.loopexit:                             ; preds = %22
  %25 = trunc nuw i64 %indvars.iv.next to i32
  br label %._crit_edge

._crit_edge:                                      ; preds = %._crit_edge.loopexit, %11
  %.0.lcssa = phi i32 [ 0, %11 ], [ %25, %._crit_edge.loopexit ]
  %26 = call i32 @u_terminateChars_77(ptr noundef %2, i32 noundef %3, i32 noundef %.0.lcssa, ptr noundef %4)
  call void @llvm.lifetime.end.p0(i64 4, ptr nonnull %6) #9
  ret i32 %26
}